target datalayout = "e-m:e-p270:32:32-p271:32:32-p272:64:64-i64:64-i128:128-f80:128-n8:16:32:64-S128"
target triple = "x86_64-pc-linux-gnu"

%"class.cv::Mat" = type { i32, i32, i32, i32, ptr, ptr, ptr, ptr, ptr, ptr, %"struct.cv::MatSize", %"struct.cv::MatStep" }
%"struct.cv::MatSize" = type { ptr }
%"struct.cv::MatStep" = type { ptr, [2 x i64] }

; Function Attrs: inlinehint mustprogress nounwind uwtable
define linkonce_odr hidden noundef zeroext i1 @_ZNK2cv3Mat12isContinuousEv(ptr noundef nonnull align 8 dereferenceable(96) %0) #10 comdat align 2 {
  %2 = alloca ptr, align 8
  store ptr %0, ptr %2, align 8, !tbaa !4
  %3 = load ptr, ptr %2, align 8
  %4 = getelementptr inbounds nuw %"class.cv::Mat", ptr %3, i32 0, i32 0
  %5 = load i32, ptr %4, align 8, !tbaa !265
  %6 = and i32 %5, 16384
  %7 = icmp ne i32 %6, 0
  ret i1 %7
}

; Function Attrs: inlinehint mustprogress nounwind uwtable
define linkonce_odr hidden noundef nonnull align 8 dereferenceable(8) ptr @_ZN2cv3Mat2atIdEERT_ii(ptr noundef nonnull align 8 dereferenceable(96) %0, i32 noundef %1, i32 noundef %2) #10 comdat align 2 {
  %4 = alloca ptr, align 8
  %5 = alloca i32, align 4
  %6 = alloca i32, align 4
  store ptr %0, ptr %4, align 8, !tbaa !4
  store i32 %1, ptr %5, align 4, !tbaa !16
  store i32 %2, ptr %6, align 4, !tbaa !16
  %7 = load ptr, ptr %4, align 8
  %8 = getelementptr inbounds nuw %"class.cv::Mat", ptr %7, i32 0, i32 4
  %9 = load ptr, ptr %8, align 8, !tbaa !91
  %10 = getelementptr inbounds nuw %"class.cv::Mat", ptr %7, i32 0, i32 11
  %11 = getelementptr inbounds nuw %"struct.cv::MatStep", ptr %10, i32 0, i32 0
  %12 = load ptr, ptr %11, align 8, !tbaa !92
  %13 = getelementptr inbounds i64, ptr %12, i64 0
  %14 = load i64, ptr %13, align 8, !tbaa !22
  %15 = load i32, ptr %5, align 4, !tbaa !16
  %16 = sext i32 %15 to i64
  %17 = mul i64 %14, %16
  %18 = getelementptr inbounds nuw i8, ptr %9, i64 %17
  %19 = load i32, ptr %6, align 4, !tbaa !16
  %20 = sext i32 %19 to i64
  %21 = getelementptr inbounds double, ptr %18, i64 %20
  ret ptr %21
}

; Function Attrs: inlinehint mustprogress nounwind uwtable
define linkonce_odr hidden noundef nonnull align 8 dereferenceable(8) ptr @_ZNK2cv3Mat2atIdEERKT_i(ptr noundef nonnull align 8 dereferenceable(96) %0, i32 noundef %1) #10 comdat align 2 {
  %3 = alloca ptr, align 8
  %4 = alloca ptr, align 8
  %5 = alloca i32, align 4
  %6 = alloca i32, align 4
  %7 = alloca i32, align 4
  store ptr %0, ptr %4, align 8, !tbaa !4
  store i32 %1, ptr %5, align 4, !tbaa !16
  %8 = load ptr, ptr %4, align 8
  %9 = call noundef zeroext i1 @_ZNK2cv3Mat12isContinuousEv(ptr noundef nonnull align 8 dereferenceable(96) %8)
  br i1 %9, label %17, label %10

10:                                               ; preds = %2
  %11 = getelementptr inbounds nuw %"class.cv::Mat", ptr %8, i32 0, i32 10
  %12 = getelementptr inbounds nuw %"struct.cv::MatSize", ptr %11, i32 0, i32 0
  %13 = load ptr, ptr %12, align 8, !tbaa !93
  %14 = getelementptr inbounds i32, ptr %13, i64 0
  %15 = load i32, ptr %14, align 4, !tbaa !16
  %16 = icmp eq i32 %15, 1
  br i1 %16, label %17, label %23

17:                                               ; preds = %10, %2
  %18 = getelementptr inbounds nuw %"class.cv::Mat", ptr %8, i32 0, i32 4
  %19 = load ptr, ptr %18, align 8, !tbaa !91
  %20 = load i32, ptr %5, align 4, !tbaa !16
  %21 = sext i32 %20 to i64
  %22 = getelementptr inbounds double, ptr %19, i64 %21
  store ptr %22, ptr %3, align 8
  br label %67

23:                                               ; preds = %10
  %24 = getelementptr inbounds nuw %"class.cv::Mat", ptr %8, i32 0, i32 10
  %25 = getelementptr inbounds nuw %"struct.cv::MatSize", ptr %24, i32 0, i32 0
  %26 = load ptr, ptr %25, align 8, !tbaa !93
  %27 = getelementptr inbounds i32, ptr %26, i64 1
  %28 = load i32, ptr %27, align 4, !tbaa !16
  %29 = icmp eq i32 %28, 1
  br i1 %29, label %30, label %42

30:                                               ; preds = %23
  %31 = getelementptr inbounds nuw %"class.cv::Mat", ptr %8, i32 0, i32 4
  %32 = load ptr, ptr %31, align 8, !tbaa !91
  %33 = getelementptr inbounds nuw %"class.cv::Mat", ptr %8, i32 0, i32 11
  %34 = getelementptr inbounds nuw %"struct.cv::MatStep", ptr %33, i32 0, i32 0
  %35 = load ptr, ptr %34, align 8, !tbaa !92
  %36 = getelementptr inbounds i64, ptr %35, i64 0
  %37 = load i64, ptr %36, align 8, !tbaa !22
  %38 = load i32, ptr %5, align 4, !tbaa !16
  %39 = sext i32 %38 to i64
  %40 = mul i64 %37, %39
  %41 = getelementptr inbounds nuw i8, ptr %32, i64 %40
  store ptr %41, ptr %3, align 8
  br label %67

42:                                               ; preds = %23
  call void @llvm.lifetime.start.p0(i64 4, ptr %6) #3
  %43 = load i32, ptr %5, align 4, !tbaa !16
  %44 = getelementptr inbounds nuw %"class.cv::Mat", ptr %8, i32 0, i32 3
  %45 = load i32, ptr %44, align 4, !tbaa !94
  %46 = sdiv i32 %43, %45
  store i32 %46, ptr %6, align 4, !tbaa !16
  call void @llvm.lifetime.start.p0(i64 4, ptr %7) #3
  %47 = load i32, ptr %5, align 4, !tbaa !16
  %48 = load i32, ptr %6, align 4, !tbaa !16
  %49 = getelementptr inbounds nuw %"class.cv::Mat", ptr %8, i32 0, i32 3
  %50 = load i32, ptr %49, align 4, !tbaa !94
  %51 = mul nsw i32 %48, %50
  %52 = sub nsw i32 %47, %51
  store i32 %52, ptr %7, align 4, !tbaa !16
  %53 = getelementptr inbounds nuw %"class.cv::Mat", ptr %8, i32 0, i32 4
  %54 = load ptr, ptr %53, align 8, !tbaa !91
  %55 = getelementptr inbounds nuw %"class.cv::Mat", ptr %8, i32 0, i32 11
  %56 = getelementptr inbounds nuw %"struct.cv::MatStep", ptr %55, i32 0, i32 0
  %57 = load ptr, ptr %56, align 8, !tbaa !92
  %58 = getelementptr inbounds i64, ptr %57, i64 0
  %59 = load i64, ptr %58, align 8, !tbaa !22
  %60 = load i32, ptr %6, align 4, !tbaa !16
  %61 = sext i32 %60 to i64
  %62 = mul i64 %59, %61
  %63 = getelementptr inbounds nuw i8, ptr %54, i64 %62
  %64 = load i32, ptr %7, align 4, !tbaa !16
  %65 = sext i32 %64 to i64
  %66 = getelementptr inbounds double, ptr %63, i64 %65
  store ptr %66, ptr %3, align 8
  call void @llvm.lifetime.end.p0(i64 4, ptr %7) #3
  call void @llvm.lifetime.end.p0(i64 4, ptr %6) #3
  br label %67

67:                                               ; preds = %42, %30, %17
  %68 = load ptr, ptr %3, align 8
  ret ptr %68
}

; Function Attrs: mustprogress uwtable
define hidden void @_Z9euler2rotRKN2cv3MatE(ptr dead_on_unwind noalias writable sret(%"class.cv::Mat") align 8 %0, ptr noundef nonnull align 8 dereferenceable(96) %1) #7 personality ptr @__gxx_personality_v0 {
  %3 = alloca ptr, align 8
  %4 = alloca ptr, align 8
  %5 = alloca i1, align 1
  %6 = alloca double, align 8
  %7 = alloca ptr, align 8
  %8 = alloca i32, align 4
  %9 = alloca double, align 8
  %10 = alloca double, align 8
  %11 = alloca double, align 8
  %12 = alloca double, align 8
  %13 = alloca double, align 8
  %14 = alloca double, align 8
  %15 = alloca double, align 8
  %16 = alloca double, align 8
  %17 = alloca double, align 8
  %18 = alloca double, align 8
  %19 = alloca double, align 8
  %20 = alloca double, align 8
  %21 = alloca double, align 8
  %22 = alloca double, align 8
  %23 = alloca double, align 8
  %24 = alloca double, align 8
  %25 = alloca double, align 8
  store ptr %0, ptr %3, align 8
  store ptr %1, ptr %4, align 8, !tbaa !4
  store i1 false, ptr %5, align 1
  call void @_ZN2cv3MatC1Eiii(ptr noundef nonnull align 8 dereferenceable(96) %0, i32 noundef 3, i32 noundef 3, i32 noundef 6)
  call void @llvm.lifetime.start.p0(i64 8, ptr %6) #3
  %26 = load ptr, ptr %4, align 8, !tbaa !4
  %27 = invoke noundef nonnull align 8 dereferenceable(8) ptr @_ZNK2cv3Mat2atIdEERKT_i(ptr noundef nonnull align 8 dereferenceable(96) %26, i32 noundef 0)
          to label %28 unwind label %127

28:                                               ; preds = %2
  %29 = load double, ptr %27, align 8, !tbaa !31
  store double %29, ptr %6, align 8, !tbaa !31
  call void @llvm.lifetime.start.p0(i64 8, ptr %9) #3
  %30 = load ptr, ptr %4, align 8, !tbaa !4
  %31 = invoke noundef nonnull align 8 dereferenceable(8) ptr @_ZNK2cv3Mat2atIdEERKT_i(ptr noundef nonnull align 8 dereferenceable(96) %30, i32 noundef 1)
          to label %32 unwind label %131

32:                                               ; preds = %28
  %33 = load double, ptr %31, align 8, !tbaa !31
  store double %33, ptr %9, align 8, !tbaa !31
  call void @llvm.lifetime.start.p0(i64 8, ptr %10) #3
  %34 = load ptr, ptr %4, align 8, !tbaa !4
  %35 = invoke noundef nonnull align 8 dereferenceable(8) ptr @_ZNK2cv3Mat2atIdEERKT_i(ptr noundef nonnull align 8 dereferenceable(96) %34, i32 noundef 2)
          to label %36 unwind label %135

36:                                               ; preds = %32
  %37 = load double, ptr %35, align 8, !tbaa !31
  store double %37, ptr %10, align 8, !tbaa !31
  call void @llvm.lifetime.start.p0(i64 8, ptr %11) #3
  %38 = load double, ptr %10, align 8, !tbaa !31
  %39 = call double @cos(double noundef %38) #3, !tbaa !16
  store double %39, ptr %11, align 8, !tbaa !31
  call void @llvm.lifetime.start.p0(i64 8, ptr %12) #3
  %40 = load double, ptr %10, align 8, !tbaa !31
  %41 = call double @sin(double noundef %40) #3, !tbaa !16
  store double %41, ptr %12, align 8, !tbaa !31
  call void @llvm.lifetime.start.p0(i64 8, ptr %13) #3
  %42 = load double, ptr %9, align 8, !tbaa !31
  %43 = call double @cos(double noundef %42) #3, !tbaa !16
  store double %43, ptr %13, align 8, !tbaa !31
  call void @llvm.lifetime.start.p0(i64 8, ptr %14) #3
  %44 = load double, ptr %9, align 8, !tbaa !31
  %45 = call double @sin(double noundef %44) #3, !tbaa !16
  store double %45, ptr %14, align 8, !tbaa !31
  call void @llvm.lifetime.start.p0(i64 8, ptr %15) #3
  %46 = load double, ptr %6, align 8, !tbaa !31
  %47 = call double @cos(double noundef %46) #3, !tbaa !16
  store double %47, ptr %15, align 8, !tbaa !31
  call void @llvm.lifetime.start.p0(i64 8, ptr %16) #3
  %48 = load double, ptr %6, align 8, !tbaa !31
  %49 = call double @sin(double noundef %48) #3, !tbaa !16
  store double %49, ptr %16, align 8, !tbaa !31
  call void @llvm.lifetime.start.p0(i64 8, ptr %17) #3
  call void @llvm.lifetime.start.p0(i64 8, ptr %18) #3
  call void @llvm.lifetime.start.p0(i64 8, ptr %19) #3
  call void @llvm.lifetime.start.p0(i64 8, ptr %20) #3
  call void @llvm.lifetime.start.p0(i64 8, ptr %21) #3
  call void @llvm.lifetime.start.p0(i64 8, ptr %22) #3
  call void @llvm.lifetime.start.p0(i64 8, ptr %23) #3
  call void @llvm.lifetime.start.p0(i64 8, ptr %24) #3
  call void @llvm.lifetime.start.p0(i64 8, ptr %25) #3
  %50 = load double, ptr %11, align 8, !tbaa !31
  %51 = load double, ptr %13, align 8, !tbaa !31
  %52 = fmul double %50, %51
  store double %52, ptr %17, align 8, !tbaa !31
  %53 = load double, ptr %12, align 8, !tbaa !31
  %54 = load double, ptr %16, align 8, !tbaa !31
  %55 = load double, ptr %11, align 8, !tbaa !31
  %56 = load double, ptr %14, align 8, !tbaa !31
  %57 = fmul double %55, %56
  %58 = load double, ptr %15, align 8, !tbaa !31
  %59 = fmul double %57, %58
  %60 = fneg double %59
  %61 = call double @llvm.fmuladd.f64(double %53, double %54, double %60)
  store double %61, ptr %18, align 8, !tbaa !31
  %62 = load double, ptr %11, align 8, !tbaa !31
  %63 = load double, ptr %14, align 8, !tbaa !31
  %64 = fmul double %62, %63
  %65 = load double, ptr %16, align 8, !tbaa !31
  %66 = load double, ptr %12, align 8, !tbaa !31
  %67 = load double, ptr %15, align 8, !tbaa !31
  %68 = fmul double %66, %67
  %69 = call double @llvm.fmuladd.f64(double %64, double %65, double %68)
  store double %69, ptr %19, align 8, !tbaa !31
  %70 = load double, ptr %14, align 8, !tbaa !31
  store double %70, ptr %20, align 8, !tbaa !31
  %71 = load double, ptr %13, align 8, !tbaa !31
  %72 = load double, ptr %15, align 8, !tbaa !31
  %73 = fmul double %71, %72
  store double %73, ptr %21, align 8, !tbaa !31
  %74 = load double, ptr %13, align 8, !tbaa !31
  %75 = fneg double %74
  %76 = load double, ptr %16, align 8, !tbaa !31
  %77 = fmul double %75, %76
  store double %77, ptr %22, align 8, !tbaa !31
  %78 = load double, ptr %12, align 8, !tbaa !31
  %79 = fneg double %78
  %80 = load double, ptr %13, align 8, !tbaa !31
  %81 = fmul double %79, %80
  store double %81, ptr %23, align 8, !tbaa !31
  %82 = load double, ptr %12, align 8, !tbaa !31
  %83 = load double, ptr %14, align 8, !tbaa !31
  %84 = fmul double %82, %83
  %85 = load double, ptr %15, align 8, !tbaa !31
  %86 = load double, ptr %11, align 8, !tbaa !31
  %87 = load double, ptr %16, align 8, !tbaa !31
  %88 = fmul double %86, %87
  %89 = call double @llvm.fmuladd.f64(double %84, double %85, double %88)
  store double %89, ptr %24, align 8, !tbaa !31
  %90 = load double, ptr %12, align 8, !tbaa !31
  %91 = fneg double %90
  %92 = load double, ptr %14, align 8, !tbaa !31
  %93 = fmul double %91, %92
  %94 = load double, ptr %16, align 8, !tbaa !31
  %95 = load double, ptr %11, align 8, !tbaa !31
  %96 = load double, ptr %15, align 8, !tbaa !31
  %97 = fmul double %95, %96
  %98 = call double @llvm.fmuladd.f64(double %93, double %94, double %97)
  store double %98, ptr %25, align 8, !tbaa !31
  %99 = load double, ptr %17, align 8, !tbaa !31
  %100 = invoke noundef nonnull align 8 dereferenceable(8) ptr @_ZN2cv3Mat2atIdEERT_ii(ptr noundef nonnull align 8 dereferenceable(96) %0, i32 noundef 0, i32 noundef 0)
          to label %101 unwind label %139

101:                                              ; preds = %36
  store double %99, ptr %100, align 8, !tbaa !31
  %102 = load double, ptr %18, align 8, !tbaa !31
  %103 = invoke noundef nonnull align 8 dereferenceable(8) ptr @_ZN2cv3Mat2atIdEERT_ii(ptr noundef nonnull align 8 dereferenceable(96) %0, i32 noundef 0, i32 noundef 1)
          to label %104 unwind label %139

104:                                              ; preds = %101
  store double %102, ptr %103, align 8, !tbaa !31
  %105 = load double, ptr %19, align 8, !tbaa !31
  %106 = invoke noundef nonnull align 8 dereferenceable(8) ptr @_ZN2cv3Mat2atIdEERT_ii(ptr noundef nonnull align 8 dereferenceable(96) %0, i32 noundef 0, i32 noundef 2)
          to label %107 unwind label %139

107:                                              ; preds = %104
  store double %105, ptr %106, align 8, !tbaa !31
  %108 = load double, ptr %20, align 8, !tbaa !31
  %109 = invoke noundef nonnull align 8 dereferenceable(8) ptr @_ZN2cv3Mat2atIdEERT_ii(ptr noundef nonnull align 8 dereferenceable(96) %0, i32 noundef 1, i32 noundef 0)
          to label %110 unwind label %139

110:                                              ; preds = %107
  store double %108, ptr %109, align 8, !tbaa !31
  %111 = load double, ptr %21, align 8, !tbaa !31
  %112 = invoke noundef nonnull align 8 dereferenceable(8) ptr @_ZN2cv3Mat2atIdEERT_ii(ptr noundef nonnull align 8 dereferenceable(96) %0, i32 noundef 1, i32 noundef 1)
          to label %113 unwind label %139

113:                                              ; preds = %110
  store double %111, ptr %112, align 8, !tbaa !31
  %114 = load double, ptr %22, align 8, !tbaa !31
  %115 = invoke noundef nonnull align 8 dereferenceable(8) ptr @_ZN2cv3Mat2atIdEERT_ii(ptr noundef nonnull align 8 dereferenceable(96) %0, i32 noundef 1, i32 noundef 2)
          to label %116 unwind label %139

116:                                              ; preds = %113
  store double %114, ptr %115, align 8, !tbaa !31
  %117 = load double, ptr %23, align 8, !tbaa !31
  %118 = invoke noundef nonnull align 8 dereferenceable(8) ptr @_ZN2cv3Mat2atIdEERT_ii(ptr noundef nonnull align 8 dereferenceable(96) %0, i32 noundef 2, i32 noundef 0)
          to label %119 unwind label %139

119:                                              ; preds = %116
  store double %117, ptr %118, align 8, !tbaa !31
  %120 = load double, ptr %24, align 8, !tbaa !31
  %121 = invoke noundef nonnull align 8 dereferenceable(8) ptr @_ZN2cv3Mat2atIdEERT_ii(ptr noundef nonnull align 8 dereferenceable(96) %0, i32 noundef 2, i32 noundef 1)
          to label %122 unwind label %139

122:                                              ; preds = %119
  store double %120, ptr %121, align 8, !tbaa !31
  %123 = load double, ptr %25, align 8, !tbaa !31
  %124 = invoke noundef nonnull align 8 dereferenceable(8) ptr @_ZN2cv3Mat2atIdEERT_ii(ptr noundef nonnull align 8 dereferenceable(96) %0, i32 noundef 2, i32 noundef 2)
          to label %125 unwind label %139

125:                                              ; preds = %122
  store double %123, ptr %124, align 8, !tbaa !31
  store i1 true, ptr %5, align 1
  call void @llvm.lifetime.end.p0(i64 8, ptr %25) #3
  call void @llvm.lifetime.end.p0(i64 8, ptr %24) #3
  call void @llvm.lifetime.end.p0(i64 8, ptr %23) #3
  call void @llvm.lifetime.end.p0(i64 8, ptr %22) #3
  call void @llvm.lifetime.end.p0(i64 8, ptr %21) #3
  call void @llvm.lifetime.end.p0(i64 8, ptr %20) #3
  call void @llvm.lifetime.end.p0(i64 8, ptr %19) #3
  call void @llvm.lifetime.end.p0(i64 8, ptr %18) #3
  call void @llvm.lifetime.end.p0(i64 8, ptr %17) #3
  call void @llvm.lifetime.end.p0(i64 8, ptr %16) #3
  call void @llvm.lifetime.end.p0(i64 8, ptr %15) #3
  call void @llvm.lifetime.end.p0(i64 8, ptr %14) #3
  call void @llvm.lifetime.end.p0(i64 8, ptr %13) #3
  call void @llvm.lifetime.end.p0(i64 8, ptr %12) #3
  call void @llvm.lifetime.end.p0(i64 8, ptr %11) #3
  call void @llvm.lifetime.end.p0(i64 8, ptr %10) #3
  call void @llvm.lifetime.end.p0(i64 8, ptr %9) #3
  call void @llvm.lifetime.end.p0(i64 8, ptr %6) #3
  %126 = load i1, ptr %5, align 1
  br i1 %126, label %147, label %146

127:                                              ; preds = %2
  %128 = landingpad { ptr, i32 }
          cleanup
  %129 = extractvalue { ptr, i32 } %128, 0
  store ptr %129, ptr %7, align 8
  %130 = extractvalue { ptr, i32 } %128, 1
  store i32 %130, ptr %8, align 4
  br label %145

131:                                              ; preds = %28
  %132 = landingpad { ptr, i32 }
          cleanup
  %133 = extractvalue { ptr, i32 } %132, 0
  store ptr %133, ptr %7, align 8
  %134 = extractvalue { ptr, i32 } %132, 1
  store i32 %134, ptr %8, align 4
  br label %144

135:                                              ; preds = %32
  %136 = landingpad { ptr, i32 }
          cleanup
  %137 = extractvalue { ptr, i32 } %136, 0
  store ptr %137, ptr %7, align 8
  %138 = extractvalue { ptr, i32 } %136, 1
  store i32 %138, ptr %8, align 4
  br label %143

139:                                              ; preds = %122, %119, %116, %113, %110, %107, %104, %101, %36
  %140 = landingpad { ptr, i32 }
          cleanup
  %141 = extractvalue { ptr, i32 } %140, 0
  store ptr %141, ptr %7, align 8
  %142 = extractvalue { ptr, i32 } %140, 1
  store i32 %142, ptr %8, align 4
  call void @llvm.lifetime.end.p0(i64 8, ptr %25) #3
  call void @llvm.lifetime.end.p0(i64 8, ptr %24) #3
  call void @llvm.lifetime.end.p0(i64 8, ptr %23) #3
  call void @llvm.lifetime.end.p0(i64 8, ptr %22) #3
  call void @llvm.lifetime.end.p0(i64 8, ptr %21) #3
  call void @llvm.lifetime.end.p0(i64 8, ptr %20) #3
  call void @llvm.lifetime.end.p0(i64 8, ptr %19) #3
  call void @llvm.lifetime.end.p0(i64 8, ptr %18) #3
  call void @llvm.lifetime.end.p0(i64 8, ptr %17) #3
  call void @llvm.lifetime.end.p0(i64 8, ptr %16) #3
  call void @llvm.lifetime.end.p0(i64 8, ptr %15) #3
  call void @llvm.lifetime.end.p0(i64 8, ptr %14) #3
  call void @llvm.lifetime.end.p0(i64 8, ptr %13) #3
  call void @llvm.lifetime.end.p0(i64 8, ptr %12) #3
  call void @llvm.lifetime.end.p0(i64 8, ptr %11) #3
  br label %143

143:                                              ; preds = %139, %135
  call void @llvm.lifetime.end.p0(i64 8, ptr %10) #3
  br label %144

144:                                              ; preds = %143, %131
  call void @llvm.lifetime.end.p0(i64 8, ptr %9) #3
  br label %145

145:                                              ; preds = %144, %127
  call void @llvm.lifetime.end.p0(i64 8, ptr %6) #3
  call void @_ZN2cv3MatD1Ev(ptr noundef nonnull align 8 dereferenceable(96) %0) #3
  br label %148

146:                                              ; preds = %125
  call void @_ZN2cv3MatD1Ev(ptr noundef nonnull align 8 dereferenceable(96) %0) #3
  br label %147

147:                                              ; preds = %146, %125
  ret void

148:                                              ; preds = %145
  %149 = load ptr, ptr %7, align 8
  %150 = load i32, ptr %8, align 4
  %151 = insertvalue { ptr, i32 } poison, ptr %149, 0
  %152 = insertvalue { ptr, i32 } %151, i32 %150, 1
  resume { ptr, i32 } %152
}