; Function Attrs: mustprogress uwtable
define hidden void @_Z9euler2rotRKN2cv3MatE(ptr dead_on_unwind noalias nonnull writable sret(%"class.cv::Mat") align 8 %0, ptr noundef nonnull readonly align 8 captures(none) dereferenceable(96) %1) local_unnamed_addr #6 personality ptr @__gxx_personality_v0 {
  tail call void @_ZN2cv3MatC1Eiii(ptr noundef nonnull align 8 dereferenceable(96) %0, i32 noundef 3, i32 noundef 3, i32 noundef 6)
  %3 = load i32, ptr %1, align 8, !tbaa !133
  %4 = and i32 %3, 16384
  %.not.i = icmp eq i32 %4, 0
  %.in.in = getelementptr inbounds nuw i8, ptr %1, i64 16
  %.in = load ptr, ptr %.in.in, align 8, !tbaa !131
  %5 = load double, ptr %.in, align 8, !tbaa !35
  br i1 %.not.i, label %_ZNK2cv3Mat2atIdEERKT_i.exit.thread55, label %_ZNK2cv3Mat2atIdEERKT_i.exit50

_ZNK2cv3Mat2atIdEERKT_i.exit.thread55:            ; preds = %2
  %6 = getelementptr inbounds nuw i8, ptr %1, i64 64
  %7 = load ptr, ptr %6, align 8, !tbaa !134
  %8 = load i32, ptr %7, align 4, !tbaa !97
  %9 = icmp eq i32 %8, 1
  br i1 %9, label %_ZNK2cv3Mat2atIdEERKT_i.exit50, label %10

10:                                               ; preds = %_ZNK2cv3Mat2atIdEERKT_i.exit.thread55
  %11 = getelementptr inbounds nuw i8, ptr %7, i64 4
  %12 = load i32, ptr %11, align 4, !tbaa !97
  %13 = icmp eq i32 %12, 1
  br i1 %13, label %14, label %19

14:                                               ; preds = %10
  %15 = getelementptr inbounds nuw i8, ptr %1, i64 72
  %16 = load ptr, ptr %15, align 8, !tbaa !132
  %17 = load i64, ptr %16, align 8, !tbaa !54
  %18 = getelementptr inbounds nuw i8, ptr %.in, i64 %17
  br label %38

19:                                               ; preds = %10
  %20 = getelementptr inbounds nuw i8, ptr %1, i64 12
  %21 = load i32, ptr %20, align 4, !tbaa !135
  %.fr = freeze i32 %21
  %22 = add i32 %.fr, 1
  %23 = icmp ult i32 %22, 3
  %24 = select i1 %23, i32 %.fr, i32 0
  %25 = mul nsw i32 %24, %.fr
  %26 = sub nsw i32 1, %25
  %27 = getelementptr inbounds nuw i8, ptr %1, i64 72
  %28 = load ptr, ptr %27, align 8, !tbaa !132
  %29 = load i64, ptr %28, align 8, !tbaa !54
  %30 = sext i32 %24 to i64
  %31 = mul i64 %29, %30
  %32 = getelementptr inbounds nuw i8, ptr %.in, i64 %31
  %33 = sext i32 %26 to i64
  %34 = getelementptr inbounds double, ptr %32, i64 %33
  br label %38

_ZNK2cv3Mat2atIdEERKT_i.exit50:                   ; preds = %_ZNK2cv3Mat2atIdEERKT_i.exit.thread55, %2
  %35 = getelementptr inbounds nuw i8, ptr %.in, i64 8
  %36 = load double, ptr %35, align 8, !tbaa !35
  %37 = getelementptr inbounds nuw i8, ptr %.in, i64 16
  br label %_ZNK2cv3Mat2atIdEERKT_i.exit53

38:                                               ; preds = %19, %14
  %.in58.ph = phi ptr [ %18, %14 ], [ %34, %19 ]
  %39 = load double, ptr %.in58.ph, align 8, !tbaa !35
  %40 = getelementptr inbounds nuw i8, ptr %7, i64 4
  %41 = load i32, ptr %40, align 4, !tbaa !97
  %42 = icmp eq i32 %41, 1
  br i1 %42, label %43, label %49

43:                                               ; preds = %38
  %44 = getelementptr inbounds nuw i8, ptr %1, i64 72
  %45 = load ptr, ptr %44, align 8, !tbaa !132
  %46 = load i64, ptr %45, align 8, !tbaa !54
  %47 = shl i64 %46, 1
  %48 = getelementptr inbounds nuw i8, ptr %.in, i64 %47
  br label %_ZNK2cv3Mat2atIdEERKT_i.exit53

49:                                               ; preds = %38
  %50 = getelementptr inbounds nuw i8, ptr %1, i64 12
  %51 = load i32, ptr %50, align 4, !tbaa !135
  %52 = sdiv i32 2, %51
  %53 = mul nsw i32 %52, %51
  %.recomposed = srem i32 2, %51
  %54 = getelementptr inbounds nuw i8, ptr %1, i64 72
  %55 = load ptr, ptr %54, align 8, !tbaa !132
  %56 = load i64, ptr %55, align 8, !tbaa !54
  %57 = sext i32 %52 to i64
  %58 = mul i64 %56, %57
  %59 = getelementptr inbounds nuw i8, ptr %.in, i64 %58
  %60 = sext i32 %.recomposed to i64
  %61 = getelementptr inbounds double, ptr %59, i64 %60
  br label %_ZNK2cv3Mat2atIdEERKT_i.exit53

_ZNK2cv3Mat2atIdEERKT_i.exit53:                   ; preds = %_ZNK2cv3Mat2atIdEERKT_i.exit50, %43, %49
  %62 = phi double [ %36, %_ZNK2cv3Mat2atIdEERKT_i.exit50 ], [ %39, %43 ], [ %39, %49 ]
  %.0.i52 = phi ptr [ %37, %_ZNK2cv3Mat2atIdEERKT_i.exit50 ], [ %48, %43 ], [ %61, %49 ]
  %63 = load double, ptr %.0.i52, align 8, !tbaa !35
  %64 = tail call double @cos(double noundef %63) #25, !tbaa !97
  %65 = tail call double @sin(double noundef %63) #25, !tbaa !97
  %66 = tail call double @cos(double noundef %62) #25, !tbaa !97
  %67 = tail call double @sin(double noundef %62) #25, !tbaa !97
  %68 = tail call double @cos(double noundef %5) #25, !tbaa !97
  %69 = tail call double @sin(double noundef %5) #25, !tbaa !97
  %70 = fmul double %64, %66
  %71 = fmul double %64, %67
  %72 = fneg double %68
  %73 = fmul double %71, %72
  %74 = tail call double @llvm.fmuladd.f64(double %65, double %69, double %73)
  %75 = fmul double %65, %68
  %76 = tail call double @llvm.fmuladd.f64(double %71, double %69, double %75)
  %77 = fmul double %66, %68
  %78 = fneg double %66
  %79 = fmul double %69, %78
  %80 = fneg double %65
  %81 = fmul double %66, %80
  %82 = fmul double %65, %67
  %83 = fmul double %64, %69
  %84 = tail call double @llvm.fmuladd.f64(double %82, double %68, double %83)
  %85 = fmul double %67, %80
  %86 = fmul double %64, %68
  %87 = tail call double @llvm.fmuladd.f64(double %85, double %69, double %86)
  %88 = getelementptr inbounds nuw i8, ptr %0, i64 16
  %89 = load ptr, ptr %88, align 8, !tbaa !131
  %90 = getelementptr inbounds nuw i8, ptr %0, i64 72
  %91 = load ptr, ptr %90, align 8, !tbaa !132
  store double %70, ptr %89, align 8, !tbaa !35
  %92 = getelementptr inbounds nuw i8, ptr %89, i64 8
  store double %74, ptr %92, align 8, !tbaa !35
  %93 = getelementptr inbounds nuw i8, ptr %89, i64 16
  store double %76, ptr %93, align 8, !tbaa !35
  %94 = load i64, ptr %91, align 8, !tbaa !54
  %95 = getelementptr inbounds nuw i8, ptr %89, i64 %94
  store double %67, ptr %95, align 8, !tbaa !35
  %96 = getelementptr inbounds nuw i8, ptr %95, i64 8
  store double %77, ptr %96, align 8, !tbaa !35
  %97 = getelementptr inbounds nuw i8, ptr %95, i64 16
  store double %79, ptr %97, align 8, !tbaa !35
  %98 = shl i64 %94, 1
  %99 = getelementptr inbounds nuw i8, ptr %89, i64 %98
  store double %81, ptr %99, align 8, !tbaa !35
  %100 = getelementptr inbounds nuw i8, ptr %99, i64 8
  store double %84, ptr %100, align 8, !tbaa !35
  %101 = getelementptr inbounds nuw i8, ptr %99, i64 16
  store double %87, ptr %101, align 8, !tbaa !35
  ret void
}